; Function Attrs: nofree nounwind memory(write, argmem: none, inaccessiblemem: readwrite) uwtable
define noalias noundef ptr @Res_WinAlloc() local_unnamed_addr #0 {
  %calloc = tail call dereferenceable_or_null(88) ptr @calloc(i64 1, i64 88)
  %1 = getelementptr inbounds nuw i8, ptr %calloc, i64 20
  store i32 10, ptr %1, align 4
  %2 = getelementptr inbounds nuw i8, ptr %calloc, i64 24
  store i32 3, ptr %2, align 8
  %3 = tail call noalias dereferenceable_or_null(16) ptr @malloc(i64 noundef 16) #8
  %4 = getelementptr inbounds nuw i8, ptr %3, i64 4
  store i32 0, ptr %4, align 4
  store i32 256, ptr %3, align 8
  %5 = tail call noalias dereferenceable_or_null(2048) ptr @malloc(i64 noundef 2048) #8
  %6 = getelementptr inbounds nuw i8, ptr %3, i64 8
  store ptr %5, ptr %6, align 8
  %7 = getelementptr inbounds nuw i8, ptr %calloc, i64 40
  store ptr %3, ptr %7, align 8
  %8 = tail call noalias dereferenceable_or_null(16) ptr @malloc(i64 noundef 16) #8
  %9 = getelementptr inbounds nuw i8, ptr %8, i64 4
  store i32 0, ptr %9, align 4
  store i32 256, ptr %8, align 8
  %10 = tail call noalias dereferenceable_or_null(2048) ptr @malloc(i64 noundef 2048) #8
  %11 = getelementptr inbounds nuw i8, ptr %8, i64 8
  store ptr %10, ptr %11, align 8
  %12 = getelementptr inbounds nuw i8, ptr %calloc, i64 48
  store ptr %8, ptr %12, align 8
  %13 = tail call noalias dereferenceable_or_null(16) ptr @malloc(i64 noundef 16) #8
  %14 = getelementptr inbounds nuw i8, ptr %13, i64 4
  store i32 0, ptr %14, align 4
  store i32 256, ptr %13, align 8
  %15 = tail call noalias dereferenceable_or_null(2048) ptr @malloc(i64 noundef 2048) #8
  %16 = getelementptr inbounds nuw i8, ptr %13, i64 8
  store ptr %15, ptr %16, align 8
  %17 = getelementptr inbounds nuw i8, ptr %calloc, i64 56
  store ptr %13, ptr %17, align 8
  %18 = tail call noalias dereferenceable_or_null(16) ptr @malloc(i64 noundef 16) #8
  %19 = getelementptr inbounds nuw i8, ptr %18, i64 4
  store i32 0, ptr %19, align 4
  store i32 256, ptr %18, align 8
  %20 = tail call noalias dereferenceable_or_null(2048) ptr @malloc(i64 noundef 2048) #8
  %21 = getelementptr inbounds nuw i8, ptr %18, i64 8
  store ptr %20, ptr %21, align 8
  %22 = getelementptr inbounds nuw i8, ptr %calloc, i64 64
  store ptr %18, ptr %22, align 8
  %23 = tail call noalias dereferenceable_or_null(16) ptr @malloc(i64 noundef 16) #8
  %24 = getelementptr inbounds nuw i8, ptr %23, i64 4
  store i32 0, ptr %24, align 4
  store i32 256, ptr %23, align 8
  %25 = tail call noalias dereferenceable_or_null(2048) ptr @malloc(i64 noundef 2048) #8
  %26 = getelementptr inbounds nuw i8, ptr %23, i64 8
  store ptr %25, ptr %26, align 8
  %27 = getelementptr inbounds nuw i8, ptr %calloc, i64 72
  store ptr %23, ptr %27, align 8
  %28 = tail call noalias dereferenceable_or_null(16) ptr @malloc(i64 noundef 16) #8
  store i32 128, ptr %28, align 8
  %29 = tail call noalias dereferenceable_or_null(1024) ptr @malloc(i64 noundef 1024) #8
  %30 = getelementptr inbounds nuw i8, ptr %28, i64 8
  store ptr %29, ptr %30, align 8
  br label %31

31:                                               ; preds = %31, %0
  %indvars.iv.i = phi i64 [ 0, %0 ], [ %indvars.iv.next.i, %31 ]
  %calloc.i = tail call dereferenceable_or_null(16) ptr @calloc(i64 1, i64 16)
  %32 = getelementptr inbounds nuw ptr, ptr %29, i64 %indvars.iv.i
  store ptr %calloc.i, ptr %32, align 8
  %indvars.iv.next.i = add nuw nsw i64 %indvars.iv.i, 1
  %exitcond.not.i = icmp eq i64 %indvars.iv.next.i, 128
  br i1 %exitcond.not.i, label %Vec_VecStart.exit, label %31, !llvm.loop !4

Vec_VecStart.exit:                                ; preds = %31
  %33 = getelementptr inbounds nuw i8, ptr %28, i64 4
  store i32 128, ptr %33, align 4
  %34 = getelementptr inbounds nuw i8, ptr %calloc, i64 80
  store ptr %28, ptr %34, align 8
  ret ptr %calloc
}